Certificate:
    Data:
        Version: 3 (0x2)
        Serial Number: 1 (0x1)
        Signature Algorithm: sha1WithRSAEncryption
        Issuer: C=IT, ST=Italia, L=Milano, O=Chimera - Bellerofonte, CN=alessandro.sivieri@chimera-bellerofonte.eu/emailAddress=alessandro.sivieri@chimera-bellerofonte.eu
        Validity
            Not Before: Nov  4 11:06:20 2010 GMT
            Not After : Nov  4 11:06:20 2011 GMT
        Subject: C=IT, ST=Italia, O=Chimera - Bellerofonte, CN=localhost/emailAddress=alessandro.sivieri@chimera-bellerofonte.eu
        Subject Public Key Info:
            Public Key Algorithm: rsaEncryption
            RSA Public Key: (1024 bit)
                Modulus (1024 bit):
                    00:cb:c7:1d:44:dd:6e:fc:b8:b9:fd:82:8a:a9:5a:
                    e1:07:90:c1:83:ec:51:c6:24:9b:03:db:1e:06:94:
                    8b:6b:00:28:30:81:e0:59:9d:05:15:b4:7e:81:a2:
                    7c:cb:f7:4d:70:5b:a6:15:91:94:e0:6d:24:0e:55:
                    bc:64:a1:b3:7a:ec:42:29:25:f6:bd:5f:aa:af:54:
                    58:06:f1:c2:26:ed:79:69:d5:f4:d5:d6:79:d1:26:
                    b2:b1:d9:44:36:55:80:d6:b6:6b:fb:4e:f4:03:4a:
                    79:bb:ee:3f:f7:87:c2:31:e3:9b:f1:ef:8b:1d:6f:
                    43:cd:8e:ca:42:3c:f0:c8:9f
                Exponent: 65537 (0x10001)
        X509v3 extensions:
            X509v3 Basic Constraints: 
                CA:FALSE
            Netscape Comment: 
                OpenSSL Generated Certificate
            X509v3 Subject Key Identifier: 
                6B:DD:A0:81:29:58:4D:04:DD:F3:72:BF:A8:45:6C:14:0F:20:DB:EC
            X509v3 Authority Key Identifier: 
                keyid:38:1B:90:54:0D:D0:D9:C2:82:9A:49:BA:28:0B:22:05:26:45:F9:39

            X509v3 CRL Distribution Points: 
                URI:http://www.chimera-bellerofonte.eu/caprivata.crl

    Signature Algorithm: sha1WithRSAEncryption
        9a:61:03:cc:49:0b:5c:35:3d:5a:a3:c4:ee:55:5d:66:79:3a:
        0e:a8:67:5a:e7:ac:32:b0:85:76:0a:b7:20:a9:0d:14:3f:65:
        56:8c:62:61:84:f3:a6:8c:86:70:f4:6a:11:dd:46:58:23:0b:
        16:7d:cd:51:88:09:7e:b8:d8:a1:fd:b1:0e:13:78:7c:6b:e2:
        f3:7e:50:28:ba:2c:9e:9a:6b:82:c5:fd:43:93:de:9e:cf:22:
        e8:56:45:56:85:9b:0c:e7:f1:67:1b:7c:6f:2d:6a:7a:f9:a7:
        6d:74:20:c9:6e:39:d1:19:52:14:5f:27:73:4e:70:ab:90:08:
        ec:12
-----BEGIN CERTIFICATE-----
MIIDhjCCAu+gAwIBAgIBATANBgkqhkiG9w0BAQUFADCBwDELMAkGA1UEBhMCSVQx
DzANBgNVBAgTBkl0YWxpYTEPMA0GA1UEBxMGTWlsYW5vMR8wHQYDVQQKExZDaGlt
ZXJhIC0gQmVsbGVyb2ZvbnRlMTMwMQYDVQQDFCphbGVzc2FuZHJvLnNpdmllcmlA
Y2hpbWVyYS1iZWxsZXJvZm9udGUuZXUxOTA3BgkqhkiG9w0BCQEWKmFsZXNzYW5k
cm8uc2l2aWVyaUBjaGltZXJhLWJlbGxlcm9mb250ZS5ldTAeFw0xMDExMDQxMTA2
MjBaFw0xMTExMDQxMTA2MjBaMIGOMQswCQYDVQQGEwJJVDEPMA0GA1UECBMGSXRh
bGlhMR8wHQYDVQQKExZDaGltZXJhIC0gQmVsbGVyb2ZvbnRlMRIwEAYDVQQDEwls
b2NhbGhvc3QxOTA3BgkqhkiG9w0BCQEWKmFsZXNzYW5kcm8uc2l2aWVyaUBjaGlt
ZXJhLWJlbGxlcm9mb250ZS5ldTCBnzANBgkqhkiG9w0BAQEFAAOBjQAwgYkCgYEA
y8cdRN1u/Li5/YKKqVrhB5DBg+xRxiSbA9seBpSLawAoMIHgWZ0FFbR+gaJ8y/dN
cFumFZGU4G0kDlW8ZKGzeuxCKSX2vV+qr1RYBvHCJu15adX01dZ50SaysdlENlWA
1rZr+070A0p5u+4/94fCMeOb8e+LHW9DzY7KQjzwyJ8CAwEAAaOBvzCBvDAJBgNV
HRMEAjAAMCwGCWCGSAGG+EIBDQQfFh1PcGVuU1NMIEdlbmVyYXRlZCBDZXJ0aWZp
Y2F0ZTAdBgNVHQ4EFgQUa92ggSlYTQTd83K/qEVsFA8g2+wwHwYDVR0jBBgwFoAU
OBuQVA3Q2cKCmkm6KAsiBSZF+TkwQQYDVR0fBDowODA2oDSgMoYwaHR0cDovL3d3
dy5jaGltZXJhLWJlbGxlcm9mb250ZS5ldS9jYXByaXZhdGEuY3JsMA0GCSqGSIb3
DQEBBQUAA4GBAJphA8xJC1w1PVqjxO5VXWZ5Og6oZ1rnrDKwhXYKtyCpDRQ/ZVaM
YmGE86aMhnD0ahHdRlgjCxZ9zVGICX642KH9sQ4TeHxr4vN+UCi6LJ6aa4LF/UOT
3p7PIuhWRVaFmwzn8WcbfG8tanr5p210IMluOdEZUhRfJ3NOcKuQCOwS
-----END CERTIFICATE-----
