Certificate:
    Data:
        Version: 3 (0x2)
        Serial Number: 2 (0x2)
        Signature Algorithm: sha1WithRSAEncryption
        Issuer: C=IT, ST=Italia, L=Milano, O=Chimera - Bellerofonte, CN=alessandro.sivieri@chimera-bellerofonte.eu/emailAddress=alessandro.sivieri@chimera-bellerofonte.eu
        Validity
            Not Before: Nov  4 11:09:58 2010 GMT
            Not After : Nov  4 11:09:58 2011 GMT
        Subject: C=IT, ST=Italia, O=Chimera - Bellerofonte, CN=peer/emailAddress=alessandro.sivieri@chimera-bellerofonte.eu
        Subject Public Key Info:
            Public Key Algorithm: rsaEncryption
            RSA Public Key: (1024 bit)
                Modulus (1024 bit):
                    00:d6:6e:31:6b:cb:6a:56:37:0c:24:54:8c:a1:50:
                    7c:bf:ae:47:54:05:a0:b6:52:4c:a3:4f:d9:f7:4f:
                    ea:0e:51:44:50:ee:ae:d6:9d:e8:05:24:ab:a7:01:
                    fb:9d:ea:b9:09:f0:52:ba:42:6d:9f:4c:ba:11:0f:
                    97:5b:0f:2d:0d:d6:b7:b7:7e:a7:c7:75:fa:a5:87:
                    ec:ff:a2:ed:4d:4e:4d:dd:47:d7:ab:c8:b4:18:13:
                    67:65:af:f0:a1:35:22:f9:3c:a6:3f:19:dd:a7:ed:
                    3d:23:d1:9c:c0:aa:d1:7e:4e:d9:ef:43:0c:58:93:
                    ca:52:81:0c:48:26:ef:a3:29
                Exponent: 65537 (0x10001)
        X509v3 extensions:
            X509v3 Basic Constraints: 
                CA:FALSE
            Netscape Comment: 
                OpenSSL Generated Certificate
            X509v3 Subject Key Identifier: 
                65:28:F6:9C:88:16:69:76:E6:17:96:AD:9E:E5:70:7E:11:3B:C6:50
            X509v3 Authority Key Identifier: 
                keyid:38:1B:90:54:0D:D0:D9:C2:82:9A:49:BA:28:0B:22:05:26:45:F9:39

            X509v3 CRL Distribution Points: 
                URI:http://www.chimera-bellerofonte.eu/caprivata.crl

    Signature Algorithm: sha1WithRSAEncryption
        76:a7:f6:63:3f:06:b8:da:04:d6:79:89:61:81:7f:e0:23:29:
        ac:b6:26:7b:bc:bf:c3:a3:5f:f7:a8:47:d8:ec:bb:62:9f:ff:
        f5:b2:1d:8a:9d:f2:ce:b6:41:1e:27:c6:55:c5:25:84:9f:f9:
        2c:5c:7e:53:9e:71:84:1d:d8:3f:e7:bd:85:cf:de:0c:5a:ed:
        49:22:22:0e:ba:94:2e:08:cd:a6:9d:6d:e2:39:8b:45:6c:ca:
        60:e4:26:6a:81:da:40:64:0e:54:1e:10:f5:f2:cb:cd:32:66:
        d4:bd:3a:ba:b3:b0:84:dd:23:3b:6c:fd:85:fa:1a:4d:36:09:
        fd:57
-----BEGIN CERTIFICATE-----
MIIDgTCCAuqgAwIBAgIBAjANBgkqhkiG9w0BAQUFADCBwDELMAkGA1UEBhMCSVQx
DzANBgNVBAgTBkl0YWxpYTEPMA0GA1UEBxMGTWlsYW5vMR8wHQYDVQQKExZDaGlt
ZXJhIC0gQmVsbGVyb2ZvbnRlMTMwMQYDVQQDFCphbGVzc2FuZHJvLnNpdmllcmlA
Y2hpbWVyYS1iZWxsZXJvZm9udGUuZXUxOTA3BgkqhkiG9w0BCQEWKmFsZXNzYW5k
cm8uc2l2aWVyaUBjaGltZXJhLWJlbGxlcm9mb250ZS5ldTAeFw0xMDExMDQxMTA5
NThaFw0xMTExMDQxMTA5NThaMIGJMQswCQYDVQQGEwJJVDEPMA0GA1UECBMGSXRh
bGlhMR8wHQYDVQQKExZDaGltZXJhIC0gQmVsbGVyb2ZvbnRlMQ0wCwYDVQQDEwRw
ZWVyMTkwNwYJKoZIhvcNAQkBFiphbGVzc2FuZHJvLnNpdmllcmlAY2hpbWVyYS1i
ZWxsZXJvZm9udGUuZXUwgZ8wDQYJKoZIhvcNAQEBBQADgY0AMIGJAoGBANZuMWvL
alY3DCRUjKFQfL+uR1QFoLZSTKNP2fdP6g5RRFDurtad6AUkq6cB+53quQnwUrpC
bZ9MuhEPl1sPLQ3Wt7d+p8d1+qWH7P+i7U1OTd1H16vItBgTZ2Wv8KE1Ivk8pj8Z
3aftPSPRnMCq0X5O2e9DDFiTylKBDEgm76MpAgMBAAGjgb8wgbwwCQYDVR0TBAIw
ADAsBglghkgBhvhCAQ0EHxYdT3BlblNTTCBHZW5lcmF0ZWQgQ2VydGlmaWNhdGUw
HQYDVR0OBBYEFGUo9pyIFml25heWrZ7lcH4RO8ZQMB8GA1UdIwQYMBaAFDgbkFQN
0NnCgppJuigLIgUmRfk5MEEGA1UdHwQ6MDgwNqA0oDKGMGh0dHA6Ly93d3cuY2hp
bWVyYS1iZWxsZXJvZm9udGUuZXUvY2Fwcml2YXRhLmNybDANBgkqhkiG9w0BAQUF
AAOBgQB2p/ZjPwa42gTWeYlhgX/gIymstiZ7vL/Do1/3qEfY7Ltin//1sh2KnfLO
tkEeJ8ZVxSWEn/ksXH5TnnGEHdg/572Fz94MWu1JIiIOupQuCM2mnW3iOYtFbMpg
5CZqgdpAZA5UHhD18svNMmbUvTq6s7CE3SM7bP2F+hpNNgn9Vw==
-----END CERTIFICATE-----
